; ModuleID = '58/722.c'
source_filename = "58/722.c"
target datalayout = "e-m:e-p270:32:32-p271:32:32-p272:64:64-i64:64-f80:128-n8:16:32:64-S128"
target triple = "x86_64-pc-linux-gnu"

@.str = private unnamed_addr constant [4 x i8] c"%d\0A\00", align 1

; Function Attrs: noinline nounwind uwtable
define dso_local i32 @main() #0 {
  %1 = alloca i32, align 4
  %2 = alloca i32, align 4
  %3 = alloca i32, align 4
  %4 = alloca i32, align 4
  %5 = alloca [81 x i8], align 16
  %6 = alloca [81 x i8], align 16
  %7 = alloca i32, align 4
  store i32 0, i32* %1, align 4
  %8 = bitcast [81 x i8]* %5 to i8*
  call void @llvm.memset.p0i8.i64(i8* align 16 %8, i8 0, i64 81, i1 false)
  %9 = getelementptr inbounds [81 x i8], [81 x i8]* %5, i64 0, i64 0
  %10 = call i32 (i8*, ...) bitcast (i32 (...)* @gets to i32 (i8*, ...)*)(i8* %9)
  %11 = getelementptr inbounds [81 x i8], [81 x i8]* %5, i64 0, i64 0
  %12 = call i32 @atoi(i8* %11) #4
  store i32 %12, i32* %2, align 4
  store i32 0, i32* %3, align 4
  br label %13

13:                                               ; preds = %113, %0
  %14 = load i32, i32* %3, align 4
  %15 = load i32, i32* %2, align 4
  %16 = sub nsw i32 %15, 1
  %17 = icmp sle i32 %14, %16
  br i1 %17, label %18, label %116

18:                                               ; preds = %13
  %19 = bitcast [81 x i8]* %6 to i8*
  call void @llvm.memset.p0i8.i64(i8* align 16 %19, i8 0, i64 81, i1 false)
  store i32 1, i32* %7, align 4
  %20 = getelementptr inbounds [81 x i8], [81 x i8]* %6, i64 0, i64 0
  %21 = call i32 (i8*, ...) bitcast (i32 (...)* @gets to i32 (i8*, ...)*)(i8* %20)
  %22 = getelementptr inbounds [81 x i8], [81 x i8]* %6, i64 0, i64 0
  %23 = load i8, i8* %22, align 16
  %24 = sext i8 %23 to i32
  %25 = icmp sge i32 %24, 65
  br i1 %25, label %26, label %31

26:                                               ; preds = %18
  %27 = getelementptr inbounds [81 x i8], [81 x i8]* %6, i64 0, i64 0
  %28 = load i8, i8* %27, align 16
  %29 = sext i8 %28 to i32
  %30 = icmp sle i32 %29, 90
  br i1 %30, label %46, label %31

31:                                               ; preds = %26, %18
  %32 = getelementptr inbounds [81 x i8], [81 x i8]* %6, i64 0, i64 0
  %33 = load i8, i8* %32, align 16
  %34 = sext i8 %33 to i32
  %35 = icmp sge i32 %34, 97
  br i1 %35, label %36, label %41

36:                                               ; preds = %31
  %37 = getelementptr inbounds [81 x i8], [81 x i8]* %6, i64 0, i64 0
  %38 = load i8, i8* %37, align 16
  %39 = sext i8 %38 to i32
  %40 = icmp sle i32 %39, 122
  br i1 %40, label %46, label %41

41:                                               ; preds = %36, %31
  %42 = getelementptr inbounds [81 x i8], [81 x i8]* %6, i64 0, i64 0
  %43 = load i8, i8* %42, align 16
  %44 = sext i8 %43 to i32
  %45 = icmp eq i32 %44, 95
  br i1 %45, label %46, label %109

46:                                               ; preds = %41, %36, %26
  store i32 1, i32* %4, align 4
  br label %47

47:                                               ; preds = %105, %46
  %48 = load i32, i32* %4, align 4
  %49 = sext i32 %48 to i64
  %50 = getelementptr inbounds [81 x i8], [81 x i8]* %6, i64 0, i64 %49
  %51 = load i8, i8* %50, align 1
  %52 = sext i8 %51 to i32
  %53 = icmp ne i32 %52, 0
  br i1 %53, label %54, label %108

54:                                               ; preds = %47
  %55 = load i32, i32* %4, align 4
  %56 = sext i32 %55 to i64
  %57 = getelementptr inbounds [81 x i8], [81 x i8]* %6, i64 0, i64 %56
  %58 = load i8, i8* %57, align 1
  %59 = sext i8 %58 to i32
  %60 = icmp sge i32 %59, 65
  br i1 %60, label %61, label %68

61:                                               ; preds = %54
  %62 = load i32, i32* %4, align 4
  %63 = sext i32 %62 to i64
  %64 = getelementptr inbounds [81 x i8], [81 x i8]* %6, i64 0, i64 %63
  %65 = load i8, i8* %64, align 1
  %66 = sext i8 %65 to i32
  %67 = icmp sle i32 %66, 90
  br i1 %67, label %104, label %68

68:                                               ; preds = %61, %54
  %69 = load i32, i32* %4, align 4
  %70 = sext i32 %69 to i64
  %71 = getelementptr inbounds [81 x i8], [81 x i8]* %6, i64 0, i64 %70
  %72 = load i8, i8* %71, align 1
  %73 = sext i8 %72 to i32
  %74 = icmp sge i32 %73, 97
  br i1 %74, label %75, label %82

75:                                               ; preds = %68
  %76 = load i32, i32* %4, align 4
  %77 = sext i32 %76 to i64
  %78 = getelementptr inbounds [81 x i8], [81 x i8]* %6, i64 0, i64 %77
  %79 = load i8, i8* %78, align 1
  %80 = sext i8 %79 to i32
  %81 = icmp sle i32 %80, 122
  br i1 %81, label %104, label %82

82:                                               ; preds = %75, %68
  %83 = load i32, i32* %4, align 4
  %84 = sext i32 %83 to i64
  %85 = getelementptr inbounds [81 x i8], [81 x i8]* %6, i64 0, i64 %84
  %86 = load i8, i8* %85, align 1
  %87 = sext i8 %86 to i32
  %88 = icmp eq i32 %87, 95
  br i1 %88, label %104, label %89

89:                                               ; preds = %82
  %90 = load i32, i32* %4, align 4
  %91 = sext i32 %90 to i64
  %92 = getelementptr inbounds [81 x i8], [81 x i8]* %6, i64 0, i64 %91
  %93 = load i8, i8* %92, align 1
  %94 = sext i8 %93 to i32
  %95 = icmp sge i32 %94, 48
  br i1 %95, label %96, label %103

96:                                               ; preds = %89
  %97 = load i32, i32* %4, align 4
  %98 = sext i32 %97 to i64
  %99 = getelementptr inbounds [81 x i8], [81 x i8]* %6, i64 0, i64 %98
  %100 = load i8, i8* %99, align 1
  %101 = sext i8 %100 to i32
  %102 = icmp sle i32 %101, 57
  br i1 %102, label %104, label %103

103:                                              ; preds = %96, %89
  store i32 0, i32* %7, align 4
  br label %108

104:                                              ; preds = %96, %82, %75, %61
  br label %105

105:                                              ; preds = %104
  %106 = load i32, i32* %4, align 4
  %107 = add nsw i32 %106, 1
  store i32 %107, i32* %4, align 4
  br label %47

108:                                              ; preds = %103, %47
  br label %110

109:                                              ; preds = %41
  store i32 0, i32* %7, align 4
  br label %110

110:                                              ; preds = %109, %108
  %111 = load i32, i32* %7, align 4
  %112 = call i32 (i8*, ...) @printf(i8* getelementptr inbounds ([4 x i8], [4 x i8]* @.str, i64 0, i64 0), i32 %111)
  br label %113

113:                                              ; preds = %110
  %114 = load i32, i32* %3, align 4
  %115 = add nsw i32 %114, 1
  store i32 %115, i32* %3, align 4
  br label %13

116:                                              ; preds = %13
  ret i32 0
}

; Function Attrs: argmemonly nounwind willreturn
declare void @llvm.memset.p0i8.i64(i8* nocapture writeonly, i8, i64, i1 immarg) #1

declare dso_local i32 @gets(...) #2

; Function Attrs: nounwind readonly
declare dso_local i32 @atoi(i8*) #3

declare dso_local i32 @printf(i8*, ...) #2


!llvm.module.flags = !{!0}
!llvm.ident = !{!1}

!0 = !{i32 1, !"wchar_size", i32 4}
!1 = !{!"clang version 10.0.0-4ubuntu1 "}
