; ModuleID = 'source-C-CXX/57/722.c'
source_filename = "source-C-CXX/57/722.c"
target datalayout = "e-m:e-p270:32:32-p271:32:32-p272:64:64-i64:64-f80:128-n8:16:32:64-S128"
target triple = "x86_64-pc-linux-gnu"

@.str = private unnamed_addr constant [4 x i8] c"%d\0A\00", align 1

; Function Attrs: nounwind sspstrong uwtable
define dso_local i32 @main() local_unnamed_addr #0 {
  %1 = alloca [81 x i8], align 16
  %2 = alloca [81 x i8], align 16
  %3 = getelementptr inbounds [81 x i8], [81 x i8]* %1, i64 0, i64 0
  call void @llvm.lifetime.start.p0i8(i64 81, i8* nonnull %3) #6
  call void @llvm.memset.p0i8.i64(i8* noundef nonnull align 16 dereferenceable(81) %3, i8 0, i64 81, i1 false)
  %4 = call i32 (i8*, ...) bitcast (i32 (...)* @gets to i32 (i8*, ...)*)(i8* nonnull %3) #6
  %5 = call i64 @strtol(i8* nocapture nonnull %3, i8** null, i32 10) #6
  %6 = trunc i64 %5 to i32
  %7 = getelementptr inbounds [81 x i8], [81 x i8]* %2, i64 0, i64 0
  %8 = getelementptr inbounds [81 x i8], [81 x i8]* %2, i64 0, i64 1
  %9 = icmp sgt i32 %6, 0
  br i1 %9, label %10, label %47

10:                                               ; preds = %0, %42
  %11 = phi i32 [ %45, %42 ], [ 0, %0 ]
  call void @llvm.lifetime.start.p0i8(i64 81, i8* nonnull %7) #6
  call void @llvm.memset.p0i8.i64(i8* noundef nonnull align 16 dereferenceable(81) %7, i8 0, i64 81, i1 false)
  %12 = call i32 (i8*, ...) bitcast (i32 (...)* @gets to i32 (i8*, ...)*)(i8* nonnull %7) #6
  %13 = load i8, i8* %7, align 16, !tbaa !5
  %14 = add i8 %13, -65
  %15 = icmp ult i8 %14, 26
  br i1 %15, label %21, label %16

16:                                               ; preds = %10
  %17 = add i8 %13, -97
  %18 = icmp ult i8 %17, 26
  %19 = icmp eq i8 %13, 95
  %20 = or i1 %19, %18
  br i1 %20, label %21, label %42

21:                                               ; preds = %16, %10
  %22 = load i8, i8* %8, align 1, !tbaa !5
  %23 = icmp eq i8 %22, 0
  br i1 %23, label %42, label %24

24:                                               ; preds = %21, %37
  %25 = phi i64 [ %38, %37 ], [ 1, %21 ]
  %26 = phi i8 [ %40, %37 ], [ %22, %21 ]
  %27 = add i8 %26, -65
  %28 = icmp ult i8 %27, 26
  br i1 %28, label %37, label %29

29:                                               ; preds = %24
  %30 = add i8 %26, -97
  %31 = icmp ult i8 %30, 26
  %32 = icmp eq i8 %26, 95
  %33 = or i1 %32, %31
  %34 = add i8 %26, -48
  %35 = icmp ult i8 %34, 10
  %36 = or i1 %35, %33
  br i1 %36, label %37, label %42

37:                                               ; preds = %29, %24
  %38 = add nuw i64 %25, 1
  %39 = getelementptr inbounds [81 x i8], [81 x i8]* %2, i64 0, i64 %38
  %40 = load i8, i8* %39, align 1, !tbaa !5
  %41 = icmp eq i8 %40, 0
  br i1 %41, label %42, label %24, !llvm.loop !8

42:                                               ; preds = %37, %29, %21, %16
  %43 = phi i32 [ 0, %16 ], [ 1, %21 ], [ 1, %37 ], [ 0, %29 ]
  %44 = call i32 (i8*, ...) @printf(i8* nonnull dereferenceable(1) getelementptr inbounds ([4 x i8], [4 x i8]* @.str, i64 0, i64 0), i32 %43)
  call void @llvm.lifetime.end.p0i8(i64 81, i8* nonnull %7) #6
  %45 = add nuw nsw i32 %11, 1
  %46 = icmp eq i32 %45, %6
  br i1 %46, label %47, label %10, !llvm.loop !10

47:                                               ; preds = %42, %0
  call void @llvm.lifetime.end.p0i8(i64 81, i8* nonnull %3) #6
  ret i32 0
}

; Function Attrs: argmemonly mustprogress nofree nosync nounwind willreturn
declare void @llvm.lifetime.start.p0i8(i64 immarg, i8* nocapture) #1

; Function Attrs: argmemonly mustprogress nofree nounwind willreturn writeonly
declare void @llvm.memset.p0i8.i64(i8* nocapture writeonly, i8, i64, i1 immarg) #2

declare i32 @gets(...) local_unnamed_addr #3

; Function Attrs: nofree nounwind
declare noundef i32 @printf(i8* nocapture noundef readonly, ...) local_unnamed_addr #4

; Function Attrs: argmemonly mustprogress nofree nosync nounwind willreturn
declare void @llvm.lifetime.end.p0i8(i64 immarg, i8* nocapture) #1

; Function Attrs: mustprogress nofree nounwind willreturn
declare i64 @strtol(i8* readonly, i8** nocapture, i32) local_unnamed_addr #5


!llvm.module.flags = !{!0, !1, !2, !3}
!llvm.ident = !{!4}

!0 = !{i32 1, !"wchar_size", i32 4}
!1 = !{i32 7, !"PIC Level", i32 2}
!2 = !{i32 7, !"PIE Level", i32 2}
!3 = !{i32 7, !"uwtable", i32 1}
!4 = !{!"clang version 13.0.0"}
!5 = !{!6, !6, i64 0}
!6 = !{!"omnipotent char", !7, i64 0}
!7 = !{!"Simple C/C++ TBAA"}
!8 = distinct !{!8, !9}
!9 = !{!"llvm.loop.mustprogress"}
!10 = distinct !{!10, !9}
